; Function Attrs: mustprogress uwtable
define internal fastcc void @_ZN2cv5utils5trace7detailsL12initTraceArgERNS2_23TraceManagerThreadLocalERKNS2_8TraceArgE(ptr noundef nonnull readonly align 8 captures(none) dereferenceable(24) %0) unnamed_addr #3 personality ptr @__gxx_personality_v0 {
  %2 = load ptr, ptr %0, align 8, !tbaa !238
  %3 = load ptr, ptr %2, align 8, !tbaa !241
  %4 = icmp eq ptr %3, null
  br i1 %4, label %5, label %30

5:                                                ; preds = %1
  %6 = tail call noundef nonnull align 8 dereferenceable(40) ptr @_ZN2cv22getInitializationMutexEv()
  %7 = tail call noundef i32 @pthread_mutex_lock(ptr noundef nonnull align 8 dereferenceable(40) %6) #24
  %.not.i.i = icmp eq i32 %7, 0
  br i1 %.not.i.i, label %_ZNSt10lock_guardISt15recursive_mutexEC2ERS0_.exit, label %8

8:                                                ; preds = %5
  tail call void @_ZSt20__throw_system_errori(i32 noundef %7) #25
  unreachable

_ZNSt10lock_guardISt15recursive_mutexEC2ERS0_.exit: ; preds = %5
  %9 = load ptr, ptr %2, align 8, !tbaa !241
  %10 = icmp eq ptr %9, null
  br i1 %10, label %11, label %26

11:                                               ; preds = %_ZNSt10lock_guardISt15recursive_mutexEC2ERS0_.exit
  %12 = invoke noalias noundef nonnull dereferenceable(8) ptr @_Znwm(i64 noundef 8) #26
          to label %13 unwind label %22

13:                                               ; preds = %11
  %14 = invoke fastcc noundef zeroext i1 @_ZN2cv5utils5trace7detailsL12isITTEnabledEv()
          to label %.noexc unwind label %24

.noexc:                                           ; preds = %13
  br i1 %14, label %15, label %21

15:                                               ; preds = %.noexc
  %16 = load ptr, ptr @__itt_string_handle_create_ptr__3_0, align 8, !tbaa !10
  %.not.i = icmp eq ptr %16, null
  br i1 %.not.i, label %21, label %17

17:                                               ; preds = %15
  %18 = getelementptr inbounds nuw i8, ptr %0, i64 8
  %19 = load ptr, ptr %18, align 8, !tbaa !245
  %20 = invoke ptr %16(ptr noundef %19)
          to label %21 unwind label %24

21:                                               ; preds = %15, %.noexc, %17
  %.sink.i = phi ptr [ null, %15 ], [ null, %.noexc ], [ %20, %17 ]
  store volatile ptr %.sink.i, ptr %12, align 8, !tbaa !243
  store ptr %12, ptr %2, align 8, !tbaa !241
  br label %26

22:                                               ; preds = %11
  %23 = landingpad { ptr, i32 }
          cleanup
  br label %28

24:                                               ; preds = %17, %13
  %25 = landingpad { ptr, i32 }
          cleanup
  tail call void @_ZdlPv(ptr noundef nonnull %12) #27
  br label %28

26:                                               ; preds = %21, %_ZNSt10lock_guardISt15recursive_mutexEC2ERS0_.exit
  %27 = tail call noundef i32 @pthread_mutex_unlock(ptr noundef nonnull align 8 dereferenceable(40) %6) #24
  br label %30

28:                                               ; preds = %24, %22
  %.pn = phi { ptr, i32 } [ %25, %24 ], [ %23, %22 ]
  %29 = tail call noundef i32 @pthread_mutex_unlock(ptr noundef nonnull align 8 dereferenceable(40) %6) #24
  resume { ptr, i32 } %.pn

30:                                               ; preds = %26, %1
  ret void
}